target datalayout = "e-m:e-p270:32:32-p271:32:32-p272:64:64-i64:64-i128:128-f80:128-n8:16:32:64-S128"
target triple = "x86_64-pc-linux-gnu"

%struct.tlsextnextprotoctx_st = type { ptr, i64 }

; Function Attrs: nounwind uwtable
define internal i32 @next_proto_cb(ptr noundef %0, ptr noundef %1, ptr noundef %2, ptr noundef %3) #0 {
  %5 = alloca ptr, align 8
  %6 = alloca ptr, align 8
  %7 = alloca ptr, align 8
  %8 = alloca ptr, align 8
  %9 = alloca ptr, align 8
  store ptr %0, ptr %5, align 8, !tbaa !73
  store ptr %1, ptr %6, align 8, !tbaa !8
  store ptr %2, ptr %7, align 8, !tbaa !75
  store ptr %3, ptr %8, align 8, !tbaa !69
  call void @llvm.lifetime.start.p0(i64 8, ptr %9) #10
  %10 = load ptr, ptr %8, align 8, !tbaa !69
  store ptr %10, ptr %9, align 8, !tbaa !78
  %11 = load ptr, ptr %9, align 8, !tbaa !78
  %12 = getelementptr inbounds nuw %struct.tlsextnextprotoctx_st, ptr %11, i32 0, i32 0
  %13 = load ptr, ptr %12, align 8, !tbaa !60
  %14 = load ptr, ptr %6, align 8, !tbaa !8
  store ptr %13, ptr %14, align 8, !tbaa !31
  %15 = load ptr, ptr %9, align 8, !tbaa !78
  %16 = getelementptr inbounds nuw %struct.tlsextnextprotoctx_st, ptr %15, i32 0, i32 1
  %17 = load i64, ptr %16, align 8, !tbaa !80
  %18 = trunc i64 %17 to i32
  %19 = load ptr, ptr %7, align 8, !tbaa !75
  store i32 %18, ptr %19, align 4, !tbaa !4
  call void @llvm.lifetime.end.p0(i64 8, ptr %9) #10
  ret i32 0
}